; Function Attrs: nounwind uwtable
define ptr @l_Lean_Server_FileWorker_handlePreRequestSpecialCases_x3f___lambda__3(ptr noundef %0, ptr noundef %1, ptr noundef %2, ptr noundef %3, ptr noundef %4) local_unnamed_addr #0 {
  %6 = tail call zeroext i8 @l_Array_isEmpty___rarg(ptr noundef %2) #7
  %7 = icmp eq i8 %6, 0
  br i1 %7, label %8, label %10

8:                                                ; preds = %5
  %9 = tail call ptr @l_Lean_Server_FileWorker_handlePreRequestSpecialCases_x3f___lambda__2(ptr noundef %0, ptr noundef %1, ptr noundef %2, ptr nonnull poison, ptr noundef %3, ptr noundef %4)
  br label %42

10:                                               ; preds = %5
  %11 = ptrtoint ptr %3 to i64
  %12 = and i64 %11, 1
  %.not = icmp eq i64 %12, 0
  br i1 %.not, label %13, label %lean_dec.exit21

13:                                               ; preds = %10
  %14 = load i32, ptr %3, align 4, !tbaa !10
  %15 = icmp sgt i32 %14, 1
  br i1 %15, label %16, label %18, !prof !13

16:                                               ; preds = %13
  %17 = add nsw i32 %14, -1
  store i32 %17, ptr %3, align 4, !tbaa !10
  br label %lean_dec.exit21

18:                                               ; preds = %13
  %.not.i = icmp eq i32 %14, 0
  br i1 %.not.i, label %lean_dec.exit21, label %19

19:                                               ; preds = %18
  tail call void @lean_dec_ref_cold(ptr noundef nonnull %3) #7
  br label %lean_dec.exit21

lean_dec.exit21:                                  ; preds = %19, %18, %16, %10
  %20 = ptrtoint ptr %0 to i64
  %21 = and i64 %20, 1
  %.not25 = icmp eq i64 %21, 0
  br i1 %.not25, label %22, label %lean_dec.exit

22:                                               ; preds = %lean_dec.exit21
  %23 = load i32, ptr %0, align 4, !tbaa !10
  %24 = icmp sgt i32 %23, 1
  br i1 %24, label %25, label %27, !prof !13

25:                                               ; preds = %22
  %26 = add nsw i32 %23, -1
  store i32 %26, ptr %0, align 4, !tbaa !10
  br label %lean_dec.exit

27:                                               ; preds = %22
  %.not.i22 = icmp eq i32 %23, 0
  br i1 %.not.i22, label %lean_dec.exit, label %28

28:                                               ; preds = %27
  tail call void @lean_dec_ref_cold(ptr noundef nonnull %0) #7
  br label %lean_dec.exit

lean_dec.exit:                                    ; preds = %28, %27, %25, %lean_dec.exit21
  %29 = tail call ptr @l___private_Lean_Data_Lsp_CodeActions_0__Lean_Lsp_toJsonCodeAction____x40_Lean_Data_Lsp_CodeActions___hyg_1131_(ptr noundef %1) #7
  tail call void @lean_inc_heartbeat() #7
  %30 = tail call noalias ptr @mi_malloc_small(i64 noundef 24) #7
  %31 = icmp eq ptr %30, null
  br i1 %31, label %32, label %lean_alloc_ctor.exit

32:                                               ; preds = %lean_dec.exit
  tail call void @lean_internal_panic_out_of_memory() #8
  unreachable

lean_alloc_ctor.exit:                             ; preds = %lean_dec.exit
  %33 = getelementptr inbounds nuw i8, ptr %30, i64 4
  %34 = getelementptr inbounds nuw i8, ptr %30, i64 16
  store i64 1, ptr %34, align 8, !tbaa !8
  store i32 1, ptr %30, align 4, !tbaa !10
  store i32 65560, ptr %33, align 4
  %35 = getelementptr inbounds nuw i8, ptr %30, i64 8
  store ptr %29, ptr %35, align 8, !tbaa !4
  tail call void @lean_inc_heartbeat() #7
  %36 = tail call noalias ptr @mi_malloc_small(i64 noundef 24) #7
  %37 = icmp eq ptr %36, null
  br i1 %37, label %38, label %lean_alloc_ctor.exit24

38:                                               ; preds = %lean_alloc_ctor.exit
  tail call void @lean_internal_panic_out_of_memory() #8
  unreachable

lean_alloc_ctor.exit24:                           ; preds = %lean_alloc_ctor.exit
  %39 = getelementptr inbounds nuw i8, ptr %36, i64 4
  store i32 1, ptr %36, align 4, !tbaa !10
  store i32 131096, ptr %39, align 4
  %40 = getelementptr inbounds nuw i8, ptr %36, i64 8
  store ptr %30, ptr %40, align 8, !tbaa !4
  %41 = getelementptr inbounds nuw i8, ptr %36, i64 16
  store ptr %4, ptr %41, align 8, !tbaa !4
  br label %42

42:                                               ; preds = %lean_alloc_ctor.exit24, %8
  %.0 = phi ptr [ %9, %8 ], [ %36, %lean_alloc_ctor.exit24 ]
  ret ptr %.0
}